target datalayout = "e-m:e-p270:32:32-p271:32:32-p272:64:64-i64:64-i128:128-f80:128-n8:16:32:64-S128"
target triple = "x86_64-pc-linux-gnu"

%struct.OSQPVectorf_ = type { ptr, i64 }

; Function Attrs: nounwind uwtable
define ptr @OSQPVectorf_malloc(i64 noundef %0) #0 {
  %2 = alloca i64, align 8
  %3 = alloca ptr, align 8
  store i64 %0, ptr %2, align 8
  %4 = call noalias ptr @malloc(i64 noundef 16) #5
  store ptr %4, ptr %3, align 8
  %5 = load ptr, ptr %3, align 8
  %6 = icmp ne ptr %5, null
  br i1 %6, label %7, label %30

7:                                                ; preds = %1
  %8 = load i64, ptr %2, align 8
  %9 = load ptr, ptr %3, align 8
  %10 = getelementptr inbounds %struct.OSQPVectorf_, ptr %9, i32 0, i32 1
  store i64 %8, ptr %10, align 8
  %11 = load i64, ptr %2, align 8
  %12 = icmp ne i64 %11, 0
  br i1 %12, label %13, label %26

13:                                               ; preds = %7
  %14 = load i64, ptr %2, align 8
  %15 = mul i64 %14, 8
  %16 = call noalias ptr @malloc(i64 noundef %15) #5
  %17 = load ptr, ptr %3, align 8
  %18 = getelementptr inbounds %struct.OSQPVectorf_, ptr %17, i32 0, i32 0
  store ptr %16, ptr %18, align 8
  %19 = load ptr, ptr %3, align 8
  %20 = getelementptr inbounds %struct.OSQPVectorf_, ptr %19, i32 0, i32 0
  %21 = load ptr, ptr %20, align 8
  %22 = icmp ne ptr %21, null
  br i1 %22, label %25, label %23

23:                                               ; preds = %13
  %24 = load ptr, ptr %3, align 8
  call void @free(ptr noundef %24) #6
  store ptr null, ptr %3, align 8
  br label %25

25:                                               ; preds = %23, %13
  br label %29

26:                                               ; preds = %7
  %27 = load ptr, ptr %3, align 8
  %28 = getelementptr inbounds %struct.OSQPVectorf_, ptr %27, i32 0, i32 0
  store ptr null, ptr %28, align 8
  br label %29

29:                                               ; preds = %26, %25
  br label %30

30:                                               ; preds = %29, %1
  %31 = load ptr, ptr %3, align 8
  ret ptr %31
}

; Function Attrs: nounwind uwtable
define ptr @OSQPVectorf_concat(ptr noundef %0, ptr noundef %1) #0 {
  %3 = alloca ptr, align 8
  %4 = alloca ptr, align 8
  %5 = alloca ptr, align 8
  %6 = alloca ptr, align 8
  %7 = alloca i64, align 8
  %8 = alloca i64, align 8
  store ptr %0, ptr %4, align 8
  store ptr %1, ptr %5, align 8
  %9 = load ptr, ptr %4, align 8
  %10 = getelementptr inbounds %struct.OSQPVectorf_, ptr %9, i32 0, i32 1
  %11 = load i64, ptr %10, align 8
  %12 = load ptr, ptr %5, align 8
  %13 = getelementptr inbounds %struct.OSQPVectorf_, ptr %12, i32 0, i32 1
  %14 = load i64, ptr %13, align 8
  %15 = add nsw i64 %11, %14
  %16 = call ptr @OSQPVectorf_malloc(i64 noundef %15)
  store ptr %16, ptr %6, align 8
  %17 = load ptr, ptr %6, align 8
  %18 = icmp ne ptr %17, null
  br i1 %18, label %20, label %19

19:                                               ; preds = %2
  store ptr null, ptr %3, align 8
  br label %68

20:                                               ; preds = %2
  store i64 0, ptr %7, align 8
  br label %21

21:                                               ; preds = %39, %20
  %22 = load i64, ptr %7, align 8
  %23 = load ptr, ptr %4, align 8
  %24 = getelementptr inbounds %struct.OSQPVectorf_, ptr %23, i32 0, i32 1
  %25 = load i64, ptr %24, align 8
  %26 = icmp slt i64 %22, %25
  br i1 %26, label %27, label %42

27:                                               ; preds = %21
  %28 = load ptr, ptr %4, align 8
  %29 = getelementptr inbounds %struct.OSQPVectorf_, ptr %28, i32 0, i32 0
  %30 = load ptr, ptr %29, align 8
  %31 = load i64, ptr %7, align 8
  %32 = getelementptr inbounds double, ptr %30, i64 %31
  %33 = load double, ptr %32, align 8
  %34 = load ptr, ptr %6, align 8
  %35 = getelementptr inbounds %struct.OSQPVectorf_, ptr %34, i32 0, i32 0
  %36 = load ptr, ptr %35, align 8
  %37 = load i64, ptr %7, align 8
  %38 = getelementptr inbounds double, ptr %36, i64 %37
  store double %33, ptr %38, align 8
  br label %39

39:                                               ; preds = %27
  %40 = load i64, ptr %7, align 8
  %41 = add nsw i64 %40, 1
  store i64 %41, ptr %7, align 8
  br label %21, !llvm.loop !12

42:                                               ; preds = %21
  store i64 0, ptr %8, align 8
  br label %43

43:                                               ; preds = %63, %42
  %44 = load i64, ptr %8, align 8
  %45 = load ptr, ptr %5, align 8
  %46 = getelementptr inbounds %struct.OSQPVectorf_, ptr %45, i32 0, i32 1
  %47 = load i64, ptr %46, align 8
  %48 = icmp slt i64 %44, %47
  br i1 %48, label %49, label %66

49:                                               ; preds = %43
  %50 = load ptr, ptr %5, align 8
  %51 = getelementptr inbounds %struct.OSQPVectorf_, ptr %50, i32 0, i32 0
  %52 = load ptr, ptr %51, align 8
  %53 = load i64, ptr %8, align 8
  %54 = getelementptr inbounds double, ptr %52, i64 %53
  %55 = load double, ptr %54, align 8
  %56 = load ptr, ptr %6, align 8
  %57 = getelementptr inbounds %struct.OSQPVectorf_, ptr %56, i32 0, i32 0
  %58 = load ptr, ptr %57, align 8
  %59 = load i64, ptr %8, align 8
  %60 = load i64, ptr %7, align 8
  %61 = add nsw i64 %59, %60
  %62 = getelementptr inbounds double, ptr %58, i64 %61
  store double %55, ptr %62, align 8
  br label %63

63:                                               ; preds = %49
  %64 = load i64, ptr %8, align 8
  %65 = add nsw i64 %64, 1
  store i64 %65, ptr %8, align 8
  br label %43, !llvm.loop !13

66:                                               ; preds = %43
  %67 = load ptr, ptr %6, align 8
  store ptr %67, ptr %3, align 8
  br label %68

68:                                               ; preds = %66, %19
  %69 = load ptr, ptr %3, align 8
  ret ptr %69
}