; Function Attrs: nounwind uwtable
define noalias noundef ptr @OSQPVectorf_concat(ptr nocapture noundef readonly %0, ptr nocapture noundef readonly %1) local_unnamed_addr #9 {
  %3 = getelementptr inbounds i8, ptr %0, i64 8
  %4 = load i64, ptr %3, align 8
  %5 = getelementptr inbounds i8, ptr %1, i64 8
  %6 = load i64, ptr %5, align 8
  %7 = add nsw i64 %6, %4
  %8 = tail call noalias dereferenceable_or_null(16) ptr @malloc(i64 noundef 16) #18
  %.not.i = icmp eq ptr %8, null
  br i1 %.not.i, label %OSQPVectorf_malloc.exit.thread, label %9

9:                                                ; preds = %2
  %10 = getelementptr inbounds i8, ptr %8, i64 8
  store i64 %7, ptr %10, align 8
  %.not11.i = icmp eq i64 %7, 0
  br i1 %.not11.i, label %15, label %11

11:                                               ; preds = %9
  %12 = shl i64 %7, 3
  %13 = tail call noalias ptr @malloc(i64 noundef %12) #18
  store ptr %13, ptr %8, align 8
  %.not12.i = icmp eq ptr %13, null
  br i1 %.not12.i, label %14, label %OSQPVectorf_malloc.exit

14:                                               ; preds = %11
  tail call void @free(ptr noundef nonnull %8) #19
  br label %OSQPVectorf_malloc.exit.thread

15:                                               ; preds = %9
  store ptr null, ptr %8, align 8
  br label %OSQPVectorf_malloc.exit

OSQPVectorf_malloc.exit:                          ; preds = %11, %15
  %16 = phi ptr [ %13, %11 ], [ null, %15 ]
  %17 = icmp sgt i64 %4, 0
  br i1 %17, label %.lr.ph, label %.preheader

.lr.ph:                                           ; preds = %OSQPVectorf_malloc.exit
  %.pre = load ptr, ptr %0, align 8
  br label %19

.preheader:                                       ; preds = %19, %OSQPVectorf_malloc.exit
  %.019.lcssa = phi i64 [ 0, %OSQPVectorf_malloc.exit ], [ %23, %19 ]
  %18 = icmp sgt i64 %6, 0
  br i1 %18, label %.lr.ph26, label %OSQPVectorf_malloc.exit.thread

.lr.ph26:                                         ; preds = %.preheader
  %invariant.gep = getelementptr double, ptr %16, i64 %.019.lcssa
  %.pre27 = load ptr, ptr %1, align 8
  br label %25

19:                                               ; preds = %.lr.ph, %19
  %.01924 = phi i64 [ 0, %.lr.ph ], [ %23, %19 ]
  %20 = getelementptr inbounds double, ptr %.pre, i64 %.01924
  %21 = load double, ptr %20, align 8
  %22 = getelementptr inbounds double, ptr %16, i64 %.01924
  store double %21, ptr %22, align 8
  %23 = add nuw nsw i64 %.01924, 1
  %24 = icmp slt i64 %23, %4
  br i1 %24, label %19, label %.preheader, !llvm.loop !12

25:                                               ; preds = %.lr.ph26, %25
  %.025 = phi i64 [ 0, %.lr.ph26 ], [ %28, %25 ]
  %26 = getelementptr inbounds double, ptr %.pre27, i64 %.025
  %27 = load double, ptr %26, align 8
  %gep = getelementptr double, ptr %invariant.gep, i64 %.025
  store double %27, ptr %gep, align 8
  %28 = add nuw nsw i64 %.025, 1
  %29 = icmp slt i64 %28, %6
  br i1 %29, label %25, label %OSQPVectorf_malloc.exit.thread, !llvm.loop !13

OSQPVectorf_malloc.exit.thread:                   ; preds = %25, %.preheader, %2, %14
  %.020 = phi ptr [ null, %14 ], [ null, %2 ], [ %8, %.preheader ], [ %8, %25 ]
  ret ptr %.020
}